; Function Attrs: mustprogress uwtable
define noundef zeroext i1 @_ZN4pkpy15CodeEmitContext9add_labelENS_7StrNameE(ptr noundef nonnull readonly align 8 captures(none) dereferenceable(232) %0, i16 %1) local_unnamed_addr #5 align 2 {
  %3 = getelementptr inbounds nuw i8, ptr %0, i64 24
  %4 = load ptr, ptr %3, align 8
  %5 = getelementptr inbounds nuw i8, ptr %4, i64 328
  %6 = load i8, ptr %5, align 1
  %7 = trunc i8 %6 to i1
  br i1 %7, label %8, label %18

8:                                                ; preds = %2
  %9 = getelementptr inbounds nuw i8, ptr %4, i64 332
  br label %11

10:                                               ; preds = %11
  %indvars.iv.next.i.i.i = add nuw nsw i64 %indvars.iv.i.i.i, 1
  %exitcond.not.i.i.i = icmp eq i64 %indvars.iv.next.i.i.i, 8
  br i1 %exitcond.not.i.i.i, label %_ZNK4pkpy12NameDictImplIiE8containsENS_7StrNameE.exit.thread, label %11, !llvm.loop !17

11:                                               ; preds = %10, %8
  %indvars.iv.i.i.i = phi i64 [ 0, %8 ], [ %indvars.iv.next.i.i.i, %10 ]
  %12 = getelementptr inbounds nuw [8 x %"struct.pkpy::StrName"], ptr %9, i64 0, i64 %indvars.iv.i.i.i
  %13 = load i16, ptr %12, align 2
  %14 = icmp eq i16 %13, %1
  br i1 %14, label %15, label %10

15:                                               ; preds = %11
  %16 = getelementptr inbounds nuw i8, ptr %4, i64 348
  %17 = getelementptr inbounds nuw [8 x i32], ptr %16, i64 0, i64 %indvars.iv.i.i.i
  br label %_ZNK4pkpy12NameDictImplIiE8containsENS_7StrNameE.exit

18:                                               ; preds = %2
  %19 = getelementptr inbounds nuw i8, ptr %4, i64 342
  %20 = load i16, ptr %19, align 2
  %21 = getelementptr inbounds nuw i8, ptr %4, i64 344
  %22 = load ptr, ptr %21, align 8
  %.011.i.i.i = and i16 %20, %1
  %23 = zext i16 %.011.i.i.i to i64
  %24 = getelementptr inbounds nuw %"struct.pkpy::NameDictItem", ptr %22, i64 %23
  %25 = load i16, ptr %24, align 2
  %26 = icmp eq i16 %25, 0
  br i1 %26, label %_ZNK4pkpy12NameDictImplIiE8containsENS_7StrNameE.exit.thread, label %.lr.ph.i.preheader.i.i

.lr.ph.i.preheader.i.i:                           ; preds = %18
  %27 = icmp eq i16 %25, %1
  br i1 %27, label %.lr.ph.i._crit_edge.i.i, label %.lr.ph.i.i

.lr.ph.i.i:                                       ; preds = %.lr.ph.i.preheader.i.i, %.lr.ph.i.i.i
  %.012.i7.i.i = phi i16 [ %.0.i.i.i, %.lr.ph.i.i.i ], [ %.011.i.i.i, %.lr.ph.i.preheader.i.i ]
  %28 = add i16 %.012.i7.i.i, 1
  %.0.i.i.i = and i16 %28, %20
  %29 = zext i16 %.0.i.i.i to i64
  %30 = getelementptr inbounds nuw %"struct.pkpy::NameDictItem", ptr %22, i64 %29
  %31 = load i16, ptr %30, align 2
  %32 = icmp eq i16 %31, 0
  br i1 %32, label %_ZNK4pkpy12NameDictImplIiE8containsENS_7StrNameE.exit.thread, label %.lr.ph.i.i.i, !llvm.loop !18

.lr.ph.i.i.i:                                     ; preds = %.lr.ph.i.i
  %33 = icmp eq i16 %31, %1
  br i1 %33, label %.lr.ph.i._crit_edge.i.i, label %.lr.ph.i.i, !llvm.loop !18

.lr.ph.i._crit_edge.i.i:                          ; preds = %.lr.ph.i.i.i, %.lr.ph.i.preheader.i.i
  %.lcssa.i.i = phi i64 [ %23, %.lr.ph.i.preheader.i.i ], [ %29, %.lr.ph.i.i.i ]
  %34 = getelementptr inbounds nuw %"struct.pkpy::NameDictItem", ptr %22, i64 %.lcssa.i.i, i32 1
  br label %_ZNK4pkpy12NameDictImplIiE8containsENS_7StrNameE.exit

_ZNK4pkpy12NameDictImplIiE8containsENS_7StrNameE.exit: ; preds = %15, %.lr.ph.i._crit_edge.i.i
  %.in = phi ptr [ %17, %15 ], [ %34, %.lr.ph.i._crit_edge.i.i ]
  %35 = load i32, ptr %.in, align 4
  %.not = icmp eq i32 %35, -1
  br i1 %.not, label %_ZNK4pkpy12NameDictImplIiE8containsENS_7StrNameE.exit.thread, label %45

_ZNK4pkpy12NameDictImplIiE8containsENS_7StrNameE.exit.thread: ; preds = %.lr.ph.i.i, %10, %18, %_ZNK4pkpy12NameDictImplIiE8containsENS_7StrNameE.exit
  %36 = getelementptr inbounds nuw i8, ptr %4, i64 48
  %37 = getelementptr inbounds nuw i8, ptr %4, i64 56
  %38 = load ptr, ptr %37, align 8
  %39 = load ptr, ptr %36, align 8
  %40 = ptrtoint ptr %38 to i64
  %41 = ptrtoint ptr %39 to i64
  %42 = sub i64 %40, %41
  %43 = lshr exact i64 %42, 2
  %44 = trunc i64 %43 to i32
  tail call void @_ZN4pkpy12NameDictImplIiE3setENS_7StrNameEi(ptr noundef nonnull align 8 dereferenceable(56) %5, i16 %1, i32 noundef %44)
  br label %45

45:                                               ; preds = %_ZNK4pkpy12NameDictImplIiE8containsENS_7StrNameE.exit, %_ZNK4pkpy12NameDictImplIiE8containsENS_7StrNameE.exit.thread
  %.0 = phi i1 [ false, %_ZNK4pkpy12NameDictImplIiE8containsENS_7StrNameE.exit ], [ true, %_ZNK4pkpy12NameDictImplIiE8containsENS_7StrNameE.exit.thread ]
  ret i1 %.0
}